
AIQ.elf:     file format elf32-littlearm

Sections:
Idx Name          Size      VMA       LMA       File off  Algn
  0 .isr_vector   000001c4  08000000  08000000  00001000  2**0
                  CONTENTS, ALLOC, LOAD, READONLY, DATA
  1 .text         00000644  080001c4  080001c4  000011c4  2**2
                  CONTENTS, ALLOC, LOAD, READONLY, CODE
  2 .rodata       000001ec  08000808  08000808  00001808  2**2
                  CONTENTS, ALLOC, LOAD, READONLY, DATA
  3 .ARM.extab    00000000  080009f4  080009f4  000019fc  2**0
                  CONTENTS, READONLY
  4 .ARM          00000000  080009f4  080009f4  000019fc  2**0
                  CONTENTS, READONLY
  5 .preinit_array 00000000  080009f4  080009fc  000019fc  2**0
                  CONTENTS, ALLOC, LOAD, DATA
  6 .init_array   00000004  080009f4  080009f4  000019f4  2**2
                  CONTENTS, ALLOC, LOAD, READONLY, DATA
  7 .fini_array   00000004  080009f8  080009f8  000019f8  2**2
                  CONTENTS, ALLOC, LOAD, READONLY, DATA
  8 .data         00000000  20000000  20000000  000019fc  2**0
                  CONTENTS, ALLOC, LOAD, DATA
  9 .bss          0000021c  20000000  080009fc  00002000  2**2
                  ALLOC
 10 ._user_heap_stack 00000604  2000021c  080009fc  0000221c  2**0
                  ALLOC
 11 .ARM.attributes 00000030  00000000  00000000  000019fc  2**0
                  CONTENTS, READONLY
 12 .debug_info   00000a76  00000000  00000000  00001a2c  2**0
                  CONTENTS, READONLY, DEBUGGING, OCTETS
 13 .debug_abbrev 00000444  00000000  00000000  000024a2  2**0
                  CONTENTS, READONLY, DEBUGGING, OCTETS
 14 .debug_aranges 00000108  00000000  00000000  000028e8  2**3
                  CONTENTS, READONLY, DEBUGGING, OCTETS
 15 .debug_macro  00001fde  00000000  00000000  000029f0  2**0
                  CONTENTS, READONLY, DEBUGGING, OCTETS
 16 .debug_line   000019c5  00000000  00000000  000049ce  2**0
                  CONTENTS, READONLY, DEBUGGING, OCTETS
 17 .debug_str    00007fc2  00000000  00000000  00006393  2**0
                  CONTENTS, READONLY, DEBUGGING, OCTETS
 18 .comment      00000043  00000000  00000000  0000e355  2**0
                  CONTENTS, READONLY
 19 .debug_rnglists 000000ad  00000000  00000000  0000e398  2**0
                  CONTENTS, READONLY, DEBUGGING, OCTETS
 20 .debug_frame  00000240  00000000  00000000  0000e448  2**2
                  CONTENTS, READONLY, DEBUGGING, OCTETS
 21 .debug_line_str 00000085  00000000  00000000  0000e688  2**0
                  CONTENTS, READONLY, DEBUGGING, OCTETS

Disassembly of section .text:

080001c4 <__do_global_dtors_aux>:
 80001c4:	b510      	push	{r4, lr}
 80001c6:	4c05      	ldr	r4, [pc, #20]	@ (80001dc <__do_global_dtors_aux+0x18>)
 80001c8:	7823      	ldrb	r3, [r4, #0]
 80001ca:	b933      	cbnz	r3, 80001da <__do_global_dtors_aux+0x16>
 80001cc:	4b04      	ldr	r3, [pc, #16]	@ (80001e0 <__do_global_dtors_aux+0x1c>)
 80001ce:	b113      	cbz	r3, 80001d6 <__do_global_dtors_aux+0x12>
 80001d0:	4804      	ldr	r0, [pc, #16]	@ (80001e4 <__do_global_dtors_aux+0x20>)
 80001d2:	f3af 8000 	nop.w
 80001d6:	2301      	movs	r3, #1
 80001d8:	7023      	strb	r3, [r4, #0]
 80001da:	bd10      	pop	{r4, pc}
 80001dc:	20000000 	.word	0x20000000
 80001e0:	00000000 	.word	0x00000000
 80001e4:	080007f0 	.word	0x080007f0

080001e8 <frame_dummy>:
 80001e8:	b508      	push	{r3, lr}
 80001ea:	4b03      	ldr	r3, [pc, #12]	@ (80001f8 <frame_dummy+0x10>)
 80001ec:	b11b      	cbz	r3, 80001f6 <frame_dummy+0xe>
 80001ee:	4903      	ldr	r1, [pc, #12]	@ (80001fc <frame_dummy+0x14>)
 80001f0:	4803      	ldr	r0, [pc, #12]	@ (8000200 <frame_dummy+0x18>)
 80001f2:	f3af 8000 	nop.w
 80001f6:	bd08      	pop	{r3, pc}
 80001f8:	00000000 	.word	0x00000000
 80001fc:	20000004 	.word	0x20000004
 8000200:	080007f0 	.word	0x080007f0

08000204 <GFX_DrawPixel>:
#include <stdlib.h>

extern uint8_t SSD1306_Buffer[128 * 4];

void GFX_DrawPixel(uint8_t x, uint8_t y, uint8_t color)
{
 8000204:	b480      	push	{r7}
 8000206:	b085      	sub	sp, #20
 8000208:	af00      	add	r7, sp, #0
 800020a:	4603      	mov	r3, r0
 800020c:	71fb      	strb	r3, [r7, #7]
 800020e:	460b      	mov	r3, r1
 8000210:	71bb      	strb	r3, [r7, #6]
 8000212:	4613      	mov	r3, r2
 8000214:	717b      	strb	r3, [r7, #5]
    if (x >= 128 || y >= 32) return;
 8000216:	f997 3007 	ldrsb.w	r3, [r7, #7]
 800021a:	2b00      	cmp	r3, #0
 800021c:	db34      	blt.n	8000288 <GFX_DrawPixel+0x84>
 800021e:	79bb      	ldrb	r3, [r7, #6]
 8000220:	2b1f      	cmp	r3, #31
 8000222:	d831      	bhi.n	8000288 <GFX_DrawPixel+0x84>

    uint16_t index = x + (y / 8) * 128;
 8000224:	79fb      	ldrb	r3, [r7, #7]
 8000226:	b29a      	uxth	r2, r3
 8000228:	79bb      	ldrb	r3, [r7, #6]
 800022a:	08db      	lsrs	r3, r3, #3
 800022c:	b2db      	uxtb	r3, r3
 800022e:	01db      	lsls	r3, r3, #7
 8000230:	b29b      	uxth	r3, r3
 8000232:	4413      	add	r3, r2
 8000234:	81fb      	strh	r3, [r7, #14]

    if (color)
 8000236:	797b      	ldrb	r3, [r7, #5]
 8000238:	2b00      	cmp	r3, #0
 800023a:	d011      	beq.n	8000260 <GFX_DrawPixel+0x5c>
        SSD1306_Buffer[index] |= (1 << (y % 8));
 800023c:	89fb      	ldrh	r3, [r7, #14]
 800023e:	4a15      	ldr	r2, [pc, #84]	@ (8000294 <GFX_DrawPixel+0x90>)
 8000240:	5cd3      	ldrb	r3, [r2, r3]
 8000242:	b25a      	sxtb	r2, r3
 8000244:	79bb      	ldrb	r3, [r7, #6]
 8000246:	f003 0307 	and.w	r3, r3, #7
 800024a:	2101      	movs	r1, #1
 800024c:	fa01 f303 	lsl.w	r3, r1, r3
 8000250:	b25b      	sxtb	r3, r3
 8000252:	4313      	orrs	r3, r2
 8000254:	b25a      	sxtb	r2, r3
 8000256:	89fb      	ldrh	r3, [r7, #14]
 8000258:	b2d1      	uxtb	r1, r2
 800025a:	4a0e      	ldr	r2, [pc, #56]	@ (8000294 <GFX_DrawPixel+0x90>)
 800025c:	54d1      	strb	r1, [r2, r3]
 800025e:	e014      	b.n	800028a <GFX_DrawPixel+0x86>
    else
        SSD1306_Buffer[index] &= ~(1 << (y % 8));
 8000260:	89fb      	ldrh	r3, [r7, #14]
 8000262:	4a0c      	ldr	r2, [pc, #48]	@ (8000294 <GFX_DrawPixel+0x90>)
 8000264:	5cd3      	ldrb	r3, [r2, r3]
 8000266:	b25a      	sxtb	r2, r3
 8000268:	79bb      	ldrb	r3, [r7, #6]
 800026a:	f003 0307 	and.w	r3, r3, #7
 800026e:	2101      	movs	r1, #1
 8000270:	fa01 f303 	lsl.w	r3, r1, r3
 8000274:	b25b      	sxtb	r3, r3
 8000276:	43db      	mvns	r3, r3
 8000278:	b25b      	sxtb	r3, r3
 800027a:	4013      	ands	r3, r2
 800027c:	b25a      	sxtb	r2, r3
 800027e:	89fb      	ldrh	r3, [r7, #14]
 8000280:	b2d1      	uxtb	r1, r2
 8000282:	4a04      	ldr	r2, [pc, #16]	@ (8000294 <GFX_DrawPixel+0x90>)
 8000284:	54d1      	strb	r1, [r2, r3]
 8000286:	e000      	b.n	800028a <GFX_DrawPixel+0x86>
    if (x >= 128 || y >= 32) return;
 8000288:	bf00      	nop
}
 800028a:	3714      	adds	r7, #20
 800028c:	46bd      	mov	sp, r7
 800028e:	f85d 7b04 	ldr.w	r7, [sp], #4
 8000292:	4770      	bx	lr
 8000294:	2000001c 	.word	0x2000001c

08000298 <GFX_DrawLine>:

void GFX_DrawLine(uint8_t x0, uint8_t y0, uint8_t x1, uint8_t y1)
{
 8000298:	b590      	push	{r4, r7, lr}
 800029a:	b089      	sub	sp, #36	@ 0x24
 800029c:	af00      	add	r7, sp, #0
 800029e:	4604      	mov	r4, r0
 80002a0:	4608      	mov	r0, r1
 80002a2:	4611      	mov	r1, r2
 80002a4:	461a      	mov	r2, r3
 80002a6:	4623      	mov	r3, r4
 80002a8:	71fb      	strb	r3, [r7, #7]
 80002aa:	4603      	mov	r3, r0
 80002ac:	71bb      	strb	r3, [r7, #6]
 80002ae:	460b      	mov	r3, r1
 80002b0:	717b      	strb	r3, [r7, #5]
 80002b2:	4613      	mov	r3, r2
 80002b4:	713b      	strb	r3, [r7, #4]
    int dx = abs(x1 - x0), sx = x0 < x1 ? 1 : -1;
 80002b6:	797a      	ldrb	r2, [r7, #5]
 80002b8:	79fb      	ldrb	r3, [r7, #7]
 80002ba:	1ad3      	subs	r3, r2, r3
 80002bc:	2b00      	cmp	r3, #0
 80002be:	bfb8      	it	lt
 80002c0:	425b      	neglt	r3, r3
 80002c2:	61bb      	str	r3, [r7, #24]
 80002c4:	79fa      	ldrb	r2, [r7, #7]
 80002c6:	797b      	ldrb	r3, [r7, #5]
 80002c8:	429a      	cmp	r2, r3
 80002ca:	d201      	bcs.n	80002d0 <GFX_DrawLine+0x38>
 80002cc:	2301      	movs	r3, #1
 80002ce:	e001      	b.n	80002d4 <GFX_DrawLine+0x3c>
 80002d0:	f04f 33ff 	mov.w	r3, #4294967295
 80002d4:	617b      	str	r3, [r7, #20]
    int dy = -abs(y1 - y0), sy = y0 < y1 ? 1 : -1;
 80002d6:	793a      	ldrb	r2, [r7, #4]
 80002d8:	79bb      	ldrb	r3, [r7, #6]
 80002da:	1ad3      	subs	r3, r2, r3
 80002dc:	2b00      	cmp	r3, #0
 80002de:	bfb8      	it	lt
 80002e0:	425b      	neglt	r3, r3
 80002e2:	425b      	negs	r3, r3
 80002e4:	613b      	str	r3, [r7, #16]
 80002e6:	79ba      	ldrb	r2, [r7, #6]
 80002e8:	793b      	ldrb	r3, [r7, #4]
 80002ea:	429a      	cmp	r2, r3
 80002ec:	d201      	bcs.n	80002f2 <GFX_DrawLine+0x5a>
 80002ee:	2301      	movs	r3, #1
 80002f0:	e001      	b.n	80002f6 <GFX_DrawLine+0x5e>
 80002f2:	f04f 33ff 	mov.w	r3, #4294967295
 80002f6:	60fb      	str	r3, [r7, #12]
    int err = dx + dy;
 80002f8:	69ba      	ldr	r2, [r7, #24]
 80002fa:	693b      	ldr	r3, [r7, #16]
 80002fc:	4413      	add	r3, r2
 80002fe:	61fb      	str	r3, [r7, #28]

    while (1)
    {
        GFX_DrawPixel(x0, y0, 1);
 8000300:	79b9      	ldrb	r1, [r7, #6]
 8000302:	79fb      	ldrb	r3, [r7, #7]
 8000304:	2201      	movs	r2, #1
 8000306:	4618      	mov	r0, r3
 8000308:	f7ff ff7c 	bl	8000204 <GFX_DrawPixel>
        if (x0 == x1 && y0 == y1) break;
 800030c:	79fa      	ldrb	r2, [r7, #7]
 800030e:	797b      	ldrb	r3, [r7, #5]
 8000310:	429a      	cmp	r2, r3
 8000312:	d103      	bne.n	800031c <GFX_DrawLine+0x84>
 8000314:	79ba      	ldrb	r2, [r7, #6]
 8000316:	793b      	ldrb	r3, [r7, #4]
 8000318:	429a      	cmp	r2, r3
 800031a:	d01d      	beq.n	8000358 <GFX_DrawLine+0xc0>
        int e2 = 2 * err;
 800031c:	69fb      	ldr	r3, [r7, #28]
 800031e:	005b      	lsls	r3, r3, #1
 8000320:	60bb      	str	r3, [r7, #8]
        if (e2 >= dy) { err += dy; x0 += sx; }
 8000322:	68ba      	ldr	r2, [r7, #8]
 8000324:	693b      	ldr	r3, [r7, #16]
 8000326:	429a      	cmp	r2, r3
 8000328:	db08      	blt.n	800033c <GFX_DrawLine+0xa4>
 800032a:	69fa      	ldr	r2, [r7, #28]
 800032c:	693b      	ldr	r3, [r7, #16]
 800032e:	4413      	add	r3, r2
 8000330:	61fb      	str	r3, [r7, #28]
 8000332:	697b      	ldr	r3, [r7, #20]
 8000334:	b2da      	uxtb	r2, r3
 8000336:	79fb      	ldrb	r3, [r7, #7]
 8000338:	4413      	add	r3, r2
 800033a:	71fb      	strb	r3, [r7, #7]
        if (e2 <= dx) { err += dx; y0 += sy; }
 800033c:	68ba      	ldr	r2, [r7, #8]
 800033e:	69bb      	ldr	r3, [r7, #24]
 8000340:	429a      	cmp	r2, r3
 8000342:	dcdd      	bgt.n	8000300 <GFX_DrawLine+0x68>
 8000344:	69fa      	ldr	r2, [r7, #28]
 8000346:	69bb      	ldr	r3, [r7, #24]
 8000348:	4413      	add	r3, r2
 800034a:	61fb      	str	r3, [r7, #28]
 800034c:	68fb      	ldr	r3, [r7, #12]
 800034e:	b2da      	uxtb	r2, r3
 8000350:	79bb      	ldrb	r3, [r7, #6]
 8000352:	4413      	add	r3, r2
 8000354:	71bb      	strb	r3, [r7, #6]
    {
 8000356:	e7d3      	b.n	8000300 <GFX_DrawLine+0x68>
        if (x0 == x1 && y0 == y1) break;
 8000358:	bf00      	nop
    }
}
 800035a:	bf00      	nop
 800035c:	3724      	adds	r7, #36	@ 0x24
 800035e:	46bd      	mov	sp, r7
 8000360:	bd90      	pop	{r4, r7, pc}

08000362 <GFX_DrawRect>:

void GFX_DrawRect(uint8_t x, uint8_t y, uint8_t w, uint8_t h)
{
 8000362:	b590      	push	{r4, r7, lr}
 8000364:	b083      	sub	sp, #12
 8000366:	af00      	add	r7, sp, #0
 8000368:	4604      	mov	r4, r0
 800036a:	4608      	mov	r0, r1
 800036c:	4611      	mov	r1, r2
 800036e:	461a      	mov	r2, r3
 8000370:	4623      	mov	r3, r4
 8000372:	71fb      	strb	r3, [r7, #7]
 8000374:	4603      	mov	r3, r0
 8000376:	71bb      	strb	r3, [r7, #6]
 8000378:	460b      	mov	r3, r1
 800037a:	717b      	strb	r3, [r7, #5]
 800037c:	4613      	mov	r3, r2
 800037e:	713b      	strb	r3, [r7, #4]
    GFX_DrawLine(x, y, x + w, y);
 8000380:	79fa      	ldrb	r2, [r7, #7]
 8000382:	797b      	ldrb	r3, [r7, #5]
 8000384:	4413      	add	r3, r2
 8000386:	b2da      	uxtb	r2, r3
 8000388:	79bb      	ldrb	r3, [r7, #6]
 800038a:	79b9      	ldrb	r1, [r7, #6]
 800038c:	79f8      	ldrb	r0, [r7, #7]
 800038e:	f7ff ff83 	bl	8000298 <GFX_DrawLine>
    GFX_DrawLine(x, y + h, x + w, y + h);
 8000392:	79ba      	ldrb	r2, [r7, #6]
 8000394:	793b      	ldrb	r3, [r7, #4]
 8000396:	4413      	add	r3, r2
 8000398:	b2d9      	uxtb	r1, r3
 800039a:	79fa      	ldrb	r2, [r7, #7]
 800039c:	797b      	ldrb	r3, [r7, #5]
 800039e:	4413      	add	r3, r2
 80003a0:	b2dc      	uxtb	r4, r3
 80003a2:	79ba      	ldrb	r2, [r7, #6]
 80003a4:	793b      	ldrb	r3, [r7, #4]
 80003a6:	4413      	add	r3, r2
 80003a8:	b2db      	uxtb	r3, r3
 80003aa:	79f8      	ldrb	r0, [r7, #7]
 80003ac:	4622      	mov	r2, r4
 80003ae:	f7ff ff73 	bl	8000298 <GFX_DrawLine>
    GFX_DrawLine(x, y, x, y + h);
 80003b2:	79ba      	ldrb	r2, [r7, #6]
 80003b4:	793b      	ldrb	r3, [r7, #4]
 80003b6:	4413      	add	r3, r2
 80003b8:	b2db      	uxtb	r3, r3
 80003ba:	79fa      	ldrb	r2, [r7, #7]
 80003bc:	79b9      	ldrb	r1, [r7, #6]
 80003be:	79f8      	ldrb	r0, [r7, #7]
 80003c0:	f7ff ff6a 	bl	8000298 <GFX_DrawLine>
    GFX_DrawLine(x + w, y, x + w, y + h);
 80003c4:	79fa      	ldrb	r2, [r7, #7]
 80003c6:	797b      	ldrb	r3, [r7, #5]
 80003c8:	4413      	add	r3, r2
 80003ca:	b2d8      	uxtb	r0, r3
 80003cc:	79fa      	ldrb	r2, [r7, #7]
 80003ce:	797b      	ldrb	r3, [r7, #5]
 80003d0:	4413      	add	r3, r2
 80003d2:	b2dc      	uxtb	r4, r3
 80003d4:	79ba      	ldrb	r2, [r7, #6]
 80003d6:	793b      	ldrb	r3, [r7, #4]
 80003d8:	4413      	add	r3, r2
 80003da:	b2db      	uxtb	r3, r3
 80003dc:	79b9      	ldrb	r1, [r7, #6]
 80003de:	4622      	mov	r2, r4
 80003e0:	f7ff ff5a 	bl	8000298 <GFX_DrawLine>
}
 80003e4:	bf00      	nop
 80003e6:	370c      	adds	r7, #12
 80003e8:	46bd      	mov	sp, r7
 80003ea:	bd90      	pop	{r4, r7, pc}

080003ec <GFX_DrawChar>:

void GFX_DrawChar(uint8_t x, uint8_t y, char c)
{
 80003ec:	b580      	push	{r7, lr}
 80003ee:	b084      	sub	sp, #16
 80003f0:	af00      	add	r7, sp, #0
 80003f2:	4603      	mov	r3, r0
 80003f4:	71fb      	strb	r3, [r7, #7]
 80003f6:	460b      	mov	r3, r1
 80003f8:	71bb      	strb	r3, [r7, #6]
 80003fa:	4613      	mov	r3, r2
 80003fc:	717b      	strb	r3, [r7, #5]
    if (c < 32 || c > 127) return;
 80003fe:	797b      	ldrb	r3, [r7, #5]
 8000400:	2b1f      	cmp	r3, #31
 8000402:	d936      	bls.n	8000472 <GFX_DrawChar+0x86>
 8000404:	f997 3005 	ldrsb.w	r3, [r7, #5]
 8000408:	2b00      	cmp	r3, #0
 800040a:	db32      	blt.n	8000472 <GFX_DrawChar+0x86>

    for (uint8_t col = 0; col < 5; col++)
 800040c:	2300      	movs	r3, #0
 800040e:	73fb      	strb	r3, [r7, #15]
 8000410:	e02b      	b.n	800046a <GFX_DrawChar+0x7e>
    {
        uint8_t line = Font5x7[c - 32][col];
 8000412:	797b      	ldrb	r3, [r7, #5]
 8000414:	f1a3 0220 	sub.w	r2, r3, #32
 8000418:	7bf9      	ldrb	r1, [r7, #15]
 800041a:	4818      	ldr	r0, [pc, #96]	@ (800047c <GFX_DrawChar+0x90>)
 800041c:	4613      	mov	r3, r2
 800041e:	009b      	lsls	r3, r3, #2
 8000420:	4413      	add	r3, r2
 8000422:	4403      	add	r3, r0
 8000424:	440b      	add	r3, r1
 8000426:	781b      	ldrb	r3, [r3, #0]
 8000428:	737b      	strb	r3, [r7, #13]
        for (uint8_t row = 0; row < 7; row++)
 800042a:	2300      	movs	r3, #0
 800042c:	73bb      	strb	r3, [r7, #14]
 800042e:	e016      	b.n	800045e <GFX_DrawChar+0x72>
            if (line & (1 << row))
 8000430:	7b7a      	ldrb	r2, [r7, #13]
 8000432:	7bbb      	ldrb	r3, [r7, #14]
 8000434:	fa42 f303 	asr.w	r3, r2, r3
 8000438:	f003 0301 	and.w	r3, r3, #1
 800043c:	2b00      	cmp	r3, #0
 800043e:	d00b      	beq.n	8000458 <GFX_DrawChar+0x6c>
                GFX_DrawPixel(x + col, y + row, 1);
 8000440:	79fa      	ldrb	r2, [r7, #7]
 8000442:	7bfb      	ldrb	r3, [r7, #15]
 8000444:	4413      	add	r3, r2
 8000446:	b2d8      	uxtb	r0, r3
 8000448:	79ba      	ldrb	r2, [r7, #6]
 800044a:	7bbb      	ldrb	r3, [r7, #14]
 800044c:	4413      	add	r3, r2
 800044e:	b2db      	uxtb	r3, r3
 8000450:	2201      	movs	r2, #1
 8000452:	4619      	mov	r1, r3
 8000454:	f7ff fed6 	bl	8000204 <GFX_DrawPixel>
        for (uint8_t row = 0; row < 7; row++)
 8000458:	7bbb      	ldrb	r3, [r7, #14]
 800045a:	3301      	adds	r3, #1
 800045c:	73bb      	strb	r3, [r7, #14]
 800045e:	7bbb      	ldrb	r3, [r7, #14]
 8000460:	2b06      	cmp	r3, #6
 8000462:	d9e5      	bls.n	8000430 <GFX_DrawChar+0x44>
    for (uint8_t col = 0; col < 5; col++)
 8000464:	7bfb      	ldrb	r3, [r7, #15]
 8000466:	3301      	adds	r3, #1
 8000468:	73fb      	strb	r3, [r7, #15]
 800046a:	7bfb      	ldrb	r3, [r7, #15]
 800046c:	2b04      	cmp	r3, #4
 800046e:	d9d0      	bls.n	8000412 <GFX_DrawChar+0x26>
 8000470:	e000      	b.n	8000474 <GFX_DrawChar+0x88>
    if (c < 32 || c > 127) return;
 8000472:	bf00      	nop
    }
}
 8000474:	3710      	adds	r7, #16
 8000476:	46bd      	mov	sp, r7
 8000478:	bd80      	pop	{r7, pc}
 800047a:	bf00      	nop
 800047c:	08000814 	.word	0x08000814

08000480 <GFX_DrawString>:

void GFX_DrawString(uint8_t x, uint8_t y, const char *str)
{
 8000480:	b580      	push	{r7, lr}
 8000482:	b082      	sub	sp, #8
 8000484:	af00      	add	r7, sp, #0
 8000486:	4603      	mov	r3, r0
 8000488:	603a      	str	r2, [r7, #0]
 800048a:	71fb      	strb	r3, [r7, #7]
 800048c:	460b      	mov	r3, r1
 800048e:	71bb      	strb	r3, [r7, #6]
    while (*str)
 8000490:	e00b      	b.n	80004aa <GFX_DrawString+0x2a>
    {
        GFX_DrawChar(x, y, *str++);
 8000492:	683b      	ldr	r3, [r7, #0]
 8000494:	1c5a      	adds	r2, r3, #1
 8000496:	603a      	str	r2, [r7, #0]
 8000498:	781a      	ldrb	r2, [r3, #0]
 800049a:	79b9      	ldrb	r1, [r7, #6]
 800049c:	79fb      	ldrb	r3, [r7, #7]
 800049e:	4618      	mov	r0, r3
 80004a0:	f7ff ffa4 	bl	80003ec <GFX_DrawChar>
        x += 6;
 80004a4:	79fb      	ldrb	r3, [r7, #7]
 80004a6:	3306      	adds	r3, #6
 80004a8:	71fb      	strb	r3, [r7, #7]
    while (*str)
 80004aa:	683b      	ldr	r3, [r7, #0]
 80004ac:	781b      	ldrb	r3, [r3, #0]
 80004ae:	2b00      	cmp	r3, #0
 80004b0:	d1ef      	bne.n	8000492 <GFX_DrawString+0x12>
    }
}
 80004b2:	bf00      	nop
 80004b4:	bf00      	nop
 80004b6:	3708      	adds	r7, #8
 80004b8:	46bd      	mov	sp, r7
 80004ba:	bd80      	pop	{r7, pc}

080004bc <I2C1_Init>:
 */
#include "stm32_f446xx.h"   // ⭐ REQUIRED
#include "i2c.h"

void I2C1_Init(void)
{
 80004bc:	b480      	push	{r7}
 80004be:	af00      	add	r7, sp, #0
    GPIOB_CLK_EN();
 80004c0:	4b2a      	ldr	r3, [pc, #168]	@ (800056c <I2C1_Init+0xb0>)
 80004c2:	6b1b      	ldr	r3, [r3, #48]	@ 0x30
 80004c4:	4a29      	ldr	r2, [pc, #164]	@ (800056c <I2C1_Init+0xb0>)
 80004c6:	f043 0302 	orr.w	r3, r3, #2
 80004ca:	6313      	str	r3, [r2, #48]	@ 0x30
    I2C1_EN();
 80004cc:	4b27      	ldr	r3, [pc, #156]	@ (800056c <I2C1_Init+0xb0>)
 80004ce:	6c1b      	ldr	r3, [r3, #64]	@ 0x40
 80004d0:	4a26      	ldr	r2, [pc, #152]	@ (800056c <I2C1_Init+0xb0>)
 80004d2:	f443 1300 	orr.w	r3, r3, #2097152	@ 0x200000
 80004d6:	6413      	str	r3, [r2, #64]	@ 0x40

    /* PB8 = SCL, PB9 = SDA */
    GPIOB->MODER &= ~((3 << 16) | (3 << 18));
 80004d8:	4b25      	ldr	r3, [pc, #148]	@ (8000570 <I2C1_Init+0xb4>)
 80004da:	681b      	ldr	r3, [r3, #0]
 80004dc:	4a24      	ldr	r2, [pc, #144]	@ (8000570 <I2C1_Init+0xb4>)
 80004de:	f423 2370 	bic.w	r3, r3, #983040	@ 0xf0000
 80004e2:	6013      	str	r3, [r2, #0]
    GPIOB->MODER |=  ((2 << 16) | (2 << 18));   // AF
 80004e4:	4b22      	ldr	r3, [pc, #136]	@ (8000570 <I2C1_Init+0xb4>)
 80004e6:	681b      	ldr	r3, [r3, #0]
 80004e8:	4a21      	ldr	r2, [pc, #132]	@ (8000570 <I2C1_Init+0xb4>)
 80004ea:	f443 2320 	orr.w	r3, r3, #655360	@ 0xa0000
 80004ee:	6013      	str	r3, [r2, #0]

    GPIOB->OTYPER |= (1 << 8) | (1 << 9);       // Open drain
 80004f0:	4b1f      	ldr	r3, [pc, #124]	@ (8000570 <I2C1_Init+0xb4>)
 80004f2:	685b      	ldr	r3, [r3, #4]
 80004f4:	4a1e      	ldr	r2, [pc, #120]	@ (8000570 <I2C1_Init+0xb4>)
 80004f6:	f443 7340 	orr.w	r3, r3, #768	@ 0x300
 80004fa:	6053      	str	r3, [r2, #4]
    GPIOB->OSPEEDR |= (3 << 16) | (3 << 18);    // High speed
 80004fc:	4b1c      	ldr	r3, [pc, #112]	@ (8000570 <I2C1_Init+0xb4>)
 80004fe:	689b      	ldr	r3, [r3, #8]
 8000500:	4a1b      	ldr	r2, [pc, #108]	@ (8000570 <I2C1_Init+0xb4>)
 8000502:	f443 2370 	orr.w	r3, r3, #983040	@ 0xf0000
 8000506:	6093      	str	r3, [r2, #8]
    GPIOB->PUPDR |= (1 << 16) | (1 << 18);      // Pull-up
 8000508:	4b19      	ldr	r3, [pc, #100]	@ (8000570 <I2C1_Init+0xb4>)
 800050a:	68db      	ldr	r3, [r3, #12]
 800050c:	4a18      	ldr	r2, [pc, #96]	@ (8000570 <I2C1_Init+0xb4>)
 800050e:	f443 23a0 	orr.w	r3, r3, #327680	@ 0x50000
 8000512:	60d3      	str	r3, [r2, #12]

    GPIOB->AFRH &= ~((0xF << 0) | (0xF << 4));
 8000514:	4b16      	ldr	r3, [pc, #88]	@ (8000570 <I2C1_Init+0xb4>)
 8000516:	6a5b      	ldr	r3, [r3, #36]	@ 0x24
 8000518:	4a15      	ldr	r2, [pc, #84]	@ (8000570 <I2C1_Init+0xb4>)
 800051a:	f023 03ff 	bic.w	r3, r3, #255	@ 0xff
 800051e:	6253      	str	r3, [r2, #36]	@ 0x24
    GPIOB->AFRH |=  (4 << 0) | (4 << 4);        // AF4 = I2C1
 8000520:	4b13      	ldr	r3, [pc, #76]	@ (8000570 <I2C1_Init+0xb4>)
 8000522:	6a5b      	ldr	r3, [r3, #36]	@ 0x24
 8000524:	4a12      	ldr	r2, [pc, #72]	@ (8000570 <I2C1_Init+0xb4>)
 8000526:	f043 0344 	orr.w	r3, r3, #68	@ 0x44
 800052a:	6253      	str	r3, [r2, #36]	@ 0x24

    /* Reset I2C */
    I2C1->CR1 |= (1 << 15);
 800052c:	4b11      	ldr	r3, [pc, #68]	@ (8000574 <I2C1_Init+0xb8>)
 800052e:	681b      	ldr	r3, [r3, #0]
 8000530:	4a10      	ldr	r2, [pc, #64]	@ (8000574 <I2C1_Init+0xb8>)
 8000532:	f443 4300 	orr.w	r3, r3, #32768	@ 0x8000
 8000536:	6013      	str	r3, [r2, #0]
    I2C1->CR1 &= ~(1 << 15);
 8000538:	4b0e      	ldr	r3, [pc, #56]	@ (8000574 <I2C1_Init+0xb8>)
 800053a:	681b      	ldr	r3, [r3, #0]
 800053c:	4a0d      	ldr	r2, [pc, #52]	@ (8000574 <I2C1_Init+0xb8>)
 800053e:	f423 4300 	bic.w	r3, r3, #32768	@ 0x8000
 8000542:	6013      	str	r3, [r2, #0]

    I2C1->CR2 = 16;     // APB1 = 16 MHz
 8000544:	4b0b      	ldr	r3, [pc, #44]	@ (8000574 <I2C1_Init+0xb8>)
 8000546:	2210      	movs	r2, #16
 8000548:	605a      	str	r2, [r3, #4]
    I2C1->CCR = 80;     // 100 kHz
 800054a:	4b0a      	ldr	r3, [pc, #40]	@ (8000574 <I2C1_Init+0xb8>)
 800054c:	2250      	movs	r2, #80	@ 0x50
 800054e:	61da      	str	r2, [r3, #28]
    I2C1->TRISE = 17;
 8000550:	4b08      	ldr	r3, [pc, #32]	@ (8000574 <I2C1_Init+0xb8>)
 8000552:	2211      	movs	r2, #17
 8000554:	621a      	str	r2, [r3, #32]

    I2C1->CR1 |= (1 << 0); // Enable I2C
 8000556:	4b07      	ldr	r3, [pc, #28]	@ (8000574 <I2C1_Init+0xb8>)
 8000558:	681b      	ldr	r3, [r3, #0]
 800055a:	4a06      	ldr	r2, [pc, #24]	@ (8000574 <I2C1_Init+0xb8>)
 800055c:	f043 0301 	orr.w	r3, r3, #1
 8000560:	6013      	str	r3, [r2, #0]
}
 8000562:	bf00      	nop
 8000564:	46bd      	mov	sp, r7
 8000566:	f85d 7b04 	ldr.w	r7, [sp], #4
 800056a:	4770      	bx	lr
 800056c:	40023800 	.word	0x40023800
 8000570:	40020400 	.word	0x40020400
 8000574:	40005400 	.word	0x40005400

08000578 <I2C1_Write>:

void I2C1_Write(uint8_t addr, uint8_t control, uint8_t data)
{
 8000578:	b480      	push	{r7}
 800057a:	b083      	sub	sp, #12
 800057c:	af00      	add	r7, sp, #0
 800057e:	4603      	mov	r3, r0
 8000580:	71fb      	strb	r3, [r7, #7]
 8000582:	460b      	mov	r3, r1
 8000584:	71bb      	strb	r3, [r7, #6]
 8000586:	4613      	mov	r3, r2
 8000588:	717b      	strb	r3, [r7, #5]
    while(I2C1->SR2 & (1 << 1));          // BUSY
 800058a:	bf00      	nop
 800058c:	4b22      	ldr	r3, [pc, #136]	@ (8000618 <I2C1_Write+0xa0>)
 800058e:	699b      	ldr	r3, [r3, #24]
 8000590:	f003 0302 	and.w	r3, r3, #2
 8000594:	2b00      	cmp	r3, #0
 8000596:	d1f9      	bne.n	800058c <I2C1_Write+0x14>

    I2C1->CR1 |= (1 << 8);                // START
 8000598:	4b1f      	ldr	r3, [pc, #124]	@ (8000618 <I2C1_Write+0xa0>)
 800059a:	681b      	ldr	r3, [r3, #0]
 800059c:	4a1e      	ldr	r2, [pc, #120]	@ (8000618 <I2C1_Write+0xa0>)
 800059e:	f443 7380 	orr.w	r3, r3, #256	@ 0x100
 80005a2:	6013      	str	r3, [r2, #0]
    while(!(I2C1->SR1 & (1 << 0)));       // SB
 80005a4:	bf00      	nop
 80005a6:	4b1c      	ldr	r3, [pc, #112]	@ (8000618 <I2C1_Write+0xa0>)
 80005a8:	695b      	ldr	r3, [r3, #20]
 80005aa:	f003 0301 	and.w	r3, r3, #1
 80005ae:	2b00      	cmp	r3, #0
 80005b0:	d0f9      	beq.n	80005a6 <I2C1_Write+0x2e>

    I2C1->DR = addr;                      // Address
 80005b2:	4a19      	ldr	r2, [pc, #100]	@ (8000618 <I2C1_Write+0xa0>)
 80005b4:	79fb      	ldrb	r3, [r7, #7]
 80005b6:	6113      	str	r3, [r2, #16]
    while(!(I2C1->SR1 & (1 << 1)));       // ADDR
 80005b8:	bf00      	nop
 80005ba:	4b17      	ldr	r3, [pc, #92]	@ (8000618 <I2C1_Write+0xa0>)
 80005bc:	695b      	ldr	r3, [r3, #20]
 80005be:	f003 0302 	and.w	r3, r3, #2
 80005c2:	2b00      	cmp	r3, #0
 80005c4:	d0f9      	beq.n	80005ba <I2C1_Write+0x42>
    (void)I2C1->SR2;
 80005c6:	4b14      	ldr	r3, [pc, #80]	@ (8000618 <I2C1_Write+0xa0>)
 80005c8:	699b      	ldr	r3, [r3, #24]

    while(!(I2C1->SR1 & (1 << 7)));       // TXE
 80005ca:	bf00      	nop
 80005cc:	4b12      	ldr	r3, [pc, #72]	@ (8000618 <I2C1_Write+0xa0>)
 80005ce:	695b      	ldr	r3, [r3, #20]
 80005d0:	f003 0380 	and.w	r3, r3, #128	@ 0x80
 80005d4:	2b00      	cmp	r3, #0
 80005d6:	d0f9      	beq.n	80005cc <I2C1_Write+0x54>
    I2C1->DR = control;
 80005d8:	4a0f      	ldr	r2, [pc, #60]	@ (8000618 <I2C1_Write+0xa0>)
 80005da:	79bb      	ldrb	r3, [r7, #6]
 80005dc:	6113      	str	r3, [r2, #16]

    while(!(I2C1->SR1 & (1 << 7)));
 80005de:	bf00      	nop
 80005e0:	4b0d      	ldr	r3, [pc, #52]	@ (8000618 <I2C1_Write+0xa0>)
 80005e2:	695b      	ldr	r3, [r3, #20]
 80005e4:	f003 0380 	and.w	r3, r3, #128	@ 0x80
 80005e8:	2b00      	cmp	r3, #0
 80005ea:	d0f9      	beq.n	80005e0 <I2C1_Write+0x68>
    I2C1->DR = data;
 80005ec:	4a0a      	ldr	r2, [pc, #40]	@ (8000618 <I2C1_Write+0xa0>)
 80005ee:	797b      	ldrb	r3, [r7, #5]
 80005f0:	6113      	str	r3, [r2, #16]

    while(!(I2C1->SR1 & (1 << 2)));       // BTF
 80005f2:	bf00      	nop
 80005f4:	4b08      	ldr	r3, [pc, #32]	@ (8000618 <I2C1_Write+0xa0>)
 80005f6:	695b      	ldr	r3, [r3, #20]
 80005f8:	f003 0304 	and.w	r3, r3, #4
 80005fc:	2b00      	cmp	r3, #0
 80005fe:	d0f9      	beq.n	80005f4 <I2C1_Write+0x7c>
    I2C1->CR1 |= (1 << 9);                // STOP
 8000600:	4b05      	ldr	r3, [pc, #20]	@ (8000618 <I2C1_Write+0xa0>)
 8000602:	681b      	ldr	r3, [r3, #0]
 8000604:	4a04      	ldr	r2, [pc, #16]	@ (8000618 <I2C1_Write+0xa0>)
 8000606:	f443 7300 	orr.w	r3, r3, #512	@ 0x200
 800060a:	6013      	str	r3, [r2, #0]
}
 800060c:	bf00      	nop
 800060e:	370c      	adds	r7, #12
 8000610:	46bd      	mov	sp, r7
 8000612:	f85d 7b04 	ldr.w	r7, [sp], #4
 8000616:	4770      	bx	lr
 8000618:	40005400 	.word	0x40005400

0800061c <main>:
#include "i2c.h"
#include "ssd1306.h"
#include "gfx.h"

int main(void)
{
 800061c:	b580      	push	{r7, lr}
 800061e:	af00      	add	r7, sp, #0
    I2C1_Init();
 8000620:	f7ff ff4c 	bl	80004bc <I2C1_Init>
    SSD1306_Init();
 8000624:	f000 f838 	bl	8000698 <SSD1306_Init>
    SSD1306_Clear();
 8000628:	f000 f846 	bl	80006b8 <SSD1306_Clear>

    GFX_DrawString(0, 0, "Hello STM32");
 800062c:	4a0a      	ldr	r2, [pc, #40]	@ (8000658 <main+0x3c>)
 800062e:	2100      	movs	r1, #0
 8000630:	2000      	movs	r0, #0
 8000632:	f7ff ff25 	bl	8000480 <GFX_DrawString>
    GFX_DrawRect(0, 10, 50, 20);
 8000636:	2314      	movs	r3, #20
 8000638:	2232      	movs	r2, #50	@ 0x32
 800063a:	210a      	movs	r1, #10
 800063c:	2000      	movs	r0, #0
 800063e:	f7ff fe90 	bl	8000362 <GFX_DrawRect>
    GFX_DrawLine(0, 31, 127, 31);
 8000642:	231f      	movs	r3, #31
 8000644:	227f      	movs	r2, #127	@ 0x7f
 8000646:	211f      	movs	r1, #31
 8000648:	2000      	movs	r0, #0
 800064a:	f7ff fe25 	bl	8000298 <GFX_DrawLine>

    SSD1306_Update();
 800064e:	f000 f84f 	bl	80006f0 <SSD1306_Update>

    while (1);
 8000652:	bf00      	nop
 8000654:	e7fd      	b.n	8000652 <main+0x36>
 8000656:	bf00      	nop
 8000658:	08000808 	.word	0x08000808

0800065c <SSD1306_WriteCmd>:
#include "i2c.h"

uint8_t SSD1306_Buffer[128 * 4];

void SSD1306_WriteCmd(uint8_t cmd)
{
 800065c:	b580      	push	{r7, lr}
 800065e:	b082      	sub	sp, #8
 8000660:	af00      	add	r7, sp, #0
 8000662:	4603      	mov	r3, r0
 8000664:	71fb      	strb	r3, [r7, #7]
    I2C1_Write(SSD1306_ADDR << 1, 0x00, cmd);
 8000666:	79fb      	ldrb	r3, [r7, #7]
 8000668:	461a      	mov	r2, r3
 800066a:	2100      	movs	r1, #0
 800066c:	2078      	movs	r0, #120	@ 0x78
 800066e:	f7ff ff83 	bl	8000578 <I2C1_Write>
}
 8000672:	bf00      	nop
 8000674:	3708      	adds	r7, #8
 8000676:	46bd      	mov	sp, r7
 8000678:	bd80      	pop	{r7, pc}

0800067a <SSD1306_WriteData>:

void SSD1306_WriteData(uint8_t data)
{
 800067a:	b580      	push	{r7, lr}
 800067c:	b082      	sub	sp, #8
 800067e:	af00      	add	r7, sp, #0
 8000680:	4603      	mov	r3, r0
 8000682:	71fb      	strb	r3, [r7, #7]
    I2C1_Write(SSD1306_ADDR << 1, 0x40, data);
 8000684:	79fb      	ldrb	r3, [r7, #7]
 8000686:	461a      	mov	r2, r3
 8000688:	2140      	movs	r1, #64	@ 0x40
 800068a:	2078      	movs	r0, #120	@ 0x78
 800068c:	f7ff ff74 	bl	8000578 <I2C1_Write>
}
 8000690:	bf00      	nop
 8000692:	3708      	adds	r7, #8
 8000694:	46bd      	mov	sp, r7
 8000696:	bd80      	pop	{r7, pc}

08000698 <SSD1306_Init>:

void SSD1306_Init(void)
{
 8000698:	b580      	push	{r7, lr}
 800069a:	af00      	add	r7, sp, #0
    SSD1306_WriteCmd(0xAE);
 800069c:	20ae      	movs	r0, #174	@ 0xae
 800069e:	f7ff ffdd 	bl	800065c <SSD1306_WriteCmd>
    SSD1306_WriteCmd(0xA8);
 80006a2:	20a8      	movs	r0, #168	@ 0xa8
 80006a4:	f7ff ffda 	bl	800065c <SSD1306_WriteCmd>
    SSD1306_WriteCmd(0x1F);
 80006a8:	201f      	movs	r0, #31
 80006aa:	f7ff ffd7 	bl	800065c <SSD1306_WriteCmd>
    SSD1306_WriteCmd(0xAF);
 80006ae:	20af      	movs	r0, #175	@ 0xaf
 80006b0:	f7ff ffd4 	bl	800065c <SSD1306_WriteCmd>
}
 80006b4:	bf00      	nop
 80006b6:	bd80      	pop	{r7, pc}

080006b8 <SSD1306_Clear>:

void SSD1306_Clear(void)
{
 80006b8:	b480      	push	{r7}
 80006ba:	b083      	sub	sp, #12
 80006bc:	af00      	add	r7, sp, #0
    for (int i = 0; i < sizeof(SSD1306_Buffer); i++)
 80006be:	2300      	movs	r3, #0
 80006c0:	607b      	str	r3, [r7, #4]
 80006c2:	e007      	b.n	80006d4 <SSD1306_Clear+0x1c>
        SSD1306_Buffer[i] = 0;
 80006c4:	4a09      	ldr	r2, [pc, #36]	@ (80006ec <SSD1306_Clear+0x34>)
 80006c6:	687b      	ldr	r3, [r7, #4]
 80006c8:	4413      	add	r3, r2
 80006ca:	2200      	movs	r2, #0
 80006cc:	701a      	strb	r2, [r3, #0]
    for (int i = 0; i < sizeof(SSD1306_Buffer); i++)
 80006ce:	687b      	ldr	r3, [r7, #4]
 80006d0:	3301      	adds	r3, #1
 80006d2:	607b      	str	r3, [r7, #4]
 80006d4:	687b      	ldr	r3, [r7, #4]
 80006d6:	f5b3 7f00 	cmp.w	r3, #512	@ 0x200
 80006da:	d3f3      	bcc.n	80006c4 <SSD1306_Clear+0xc>
}
 80006dc:	bf00      	nop
 80006de:	bf00      	nop
 80006e0:	370c      	adds	r7, #12
 80006e2:	46bd      	mov	sp, r7
 80006e4:	f85d 7b04 	ldr.w	r7, [sp], #4
 80006e8:	4770      	bx	lr
 80006ea:	bf00      	nop
 80006ec:	2000001c 	.word	0x2000001c

080006f0 <SSD1306_Update>:

void SSD1306_Update(void)
{
 80006f0:	b580      	push	{r7, lr}
 80006f2:	b082      	sub	sp, #8
 80006f4:	af00      	add	r7, sp, #0
    for (uint8_t page = 0; page < 4; page++)
 80006f6:	2300      	movs	r3, #0
 80006f8:	71fb      	strb	r3, [r7, #7]
 80006fa:	e021      	b.n	8000740 <SSD1306_Update+0x50>
    {
        SSD1306_WriteCmd(0xB0 + page);
 80006fc:	79fb      	ldrb	r3, [r7, #7]
 80006fe:	3b50      	subs	r3, #80	@ 0x50
 8000700:	b2db      	uxtb	r3, r3
 8000702:	4618      	mov	r0, r3
 8000704:	f7ff ffaa 	bl	800065c <SSD1306_WriteCmd>
        SSD1306_WriteCmd(0x00);
 8000708:	2000      	movs	r0, #0
 800070a:	f7ff ffa7 	bl	800065c <SSD1306_WriteCmd>
        SSD1306_WriteCmd(0x10);
 800070e:	2010      	movs	r0, #16
 8000710:	f7ff ffa4 	bl	800065c <SSD1306_WriteCmd>

        for (uint8_t col = 0; col < 128; col++)
 8000714:	2300      	movs	r3, #0
 8000716:	71bb      	strb	r3, [r7, #6]
 8000718:	e00b      	b.n	8000732 <SSD1306_Update+0x42>
            SSD1306_WriteData(SSD1306_Buffer[page * 128 + col]);
 800071a:	79fb      	ldrb	r3, [r7, #7]
 800071c:	01da      	lsls	r2, r3, #7
 800071e:	79bb      	ldrb	r3, [r7, #6]
 8000720:	4413      	add	r3, r2
 8000722:	4a0b      	ldr	r2, [pc, #44]	@ (8000750 <SSD1306_Update+0x60>)
 8000724:	5cd3      	ldrb	r3, [r2, r3]
 8000726:	4618      	mov	r0, r3
 8000728:	f7ff ffa7 	bl	800067a <SSD1306_WriteData>
        for (uint8_t col = 0; col < 128; col++)
 800072c:	79bb      	ldrb	r3, [r7, #6]
 800072e:	3301      	adds	r3, #1
 8000730:	71bb      	strb	r3, [r7, #6]
 8000732:	f997 3006 	ldrsb.w	r3, [r7, #6]
 8000736:	2b00      	cmp	r3, #0
 8000738:	daef      	bge.n	800071a <SSD1306_Update+0x2a>
    for (uint8_t page = 0; page < 4; page++)
 800073a:	79fb      	ldrb	r3, [r7, #7]
 800073c:	3301      	adds	r3, #1
 800073e:	71fb      	strb	r3, [r7, #7]
 8000740:	79fb      	ldrb	r3, [r7, #7]
 8000742:	2b03      	cmp	r3, #3
 8000744:	d9da      	bls.n	80006fc <SSD1306_Update+0xc>
    }
}
 8000746:	bf00      	nop
 8000748:	bf00      	nop
 800074a:	3708      	adds	r7, #8
 800074c:	46bd      	mov	sp, r7
 800074e:	bd80      	pop	{r7, pc}
 8000750:	2000001c 	.word	0x2000001c

08000754 <Reset_Handler>:

  .section .text.Reset_Handler
  .weak Reset_Handler
  .type Reset_Handler, %function
Reset_Handler:
  ldr   r0, =_estack
 8000754:	480d      	ldr	r0, [pc, #52]	@ (800078c <LoopForever+0x2>)
  mov   sp, r0          /* set stack pointer */
 8000756:	4685      	mov	sp, r0
/* Call the clock system initialization function.*/
  bl  SystemInit
 8000758:	f3af 8000 	nop.w

/* Copy the data segment initializers from flash to SRAM */
  ldr r0, =_sdata
 800075c:	480c      	ldr	r0, [pc, #48]	@ (8000790 <LoopForever+0x6>)
  ldr r1, =_edata
 800075e:	490d      	ldr	r1, [pc, #52]	@ (8000794 <LoopForever+0xa>)
  ldr r2, =_sidata
 8000760:	4a0d      	ldr	r2, [pc, #52]	@ (8000798 <LoopForever+0xe>)
  movs r3, #0
 8000762:	2300      	movs	r3, #0
  b LoopCopyDataInit
 8000764:	e002      	b.n	800076c <LoopCopyDataInit>

08000766 <CopyDataInit>:

CopyDataInit:
  ldr r4, [r2, r3]
 8000766:	58d4      	ldr	r4, [r2, r3]
  str r4, [r0, r3]
 8000768:	50c4      	str	r4, [r0, r3]
  adds r3, r3, #4
 800076a:	3304      	adds	r3, #4

0800076c <LoopCopyDataInit>:

LoopCopyDataInit:
  adds r4, r0, r3
 800076c:	18c4      	adds	r4, r0, r3
  cmp r4, r1
 800076e:	428c      	cmp	r4, r1
  bcc CopyDataInit
 8000770:	d3f9      	bcc.n	8000766 <CopyDataInit>

/* Zero fill the bss segment. */
  ldr r2, =_sbss
 8000772:	4a0a      	ldr	r2, [pc, #40]	@ (800079c <LoopForever+0x12>)
  ldr r4, =_ebss
 8000774:	4c0a      	ldr	r4, [pc, #40]	@ (80007a0 <LoopForever+0x16>)
  movs r3, #0
 8000776:	2300      	movs	r3, #0
  b LoopFillZerobss
 8000778:	e001      	b.n	800077e <LoopFillZerobss>

0800077a <FillZerobss>:

FillZerobss:
  str  r3, [r2]
 800077a:	6013      	str	r3, [r2, #0]
  adds r2, r2, #4
 800077c:	3204      	adds	r2, #4

0800077e <LoopFillZerobss>:

LoopFillZerobss:
  cmp r2, r4
 800077e:	42a2      	cmp	r2, r4
  bcc FillZerobss
 8000780:	d3fb      	bcc.n	800077a <FillZerobss>


/* Call static constructors */
  bl __libc_init_array
 8000782:	f000 f811 	bl	80007a8 <__libc_init_array>
/* Call the application's entry point.*/

  bl main
 8000786:	f7ff ff49 	bl	800061c <main>

0800078a <LoopForever>:

LoopForever:
  b LoopForever
 800078a:	e7fe      	b.n	800078a <LoopForever>
  ldr   r0, =_estack
 800078c:	20020000 	.word	0x20020000
  ldr r0, =_sdata
 8000790:	20000000 	.word	0x20000000
  ldr r1, =_edata
 8000794:	20000000 	.word	0x20000000
  ldr r2, =_sidata
 8000798:	080009fc 	.word	0x080009fc
  ldr r2, =_sbss
 800079c:	20000000 	.word	0x20000000
  ldr r4, =_ebss
 80007a0:	2000021c 	.word	0x2000021c

080007a4 <ADC_IRQHandler>:
 * @retval : None
*/
  .section .text.Default_Handler,"ax",%progbits
Default_Handler:
Infinite_Loop:
  b Infinite_Loop
 80007a4:	e7fe      	b.n	80007a4 <ADC_IRQHandler>
	...

080007a8 <__libc_init_array>:
 80007a8:	b570      	push	{r4, r5, r6, lr}
 80007aa:	4d0d      	ldr	r5, [pc, #52]	@ (80007e0 <__libc_init_array+0x38>)
 80007ac:	4c0d      	ldr	r4, [pc, #52]	@ (80007e4 <__libc_init_array+0x3c>)
 80007ae:	1b64      	subs	r4, r4, r5
 80007b0:	10a4      	asrs	r4, r4, #2
 80007b2:	2600      	movs	r6, #0
 80007b4:	42a6      	cmp	r6, r4
 80007b6:	d109      	bne.n	80007cc <__libc_init_array+0x24>
 80007b8:	4d0b      	ldr	r5, [pc, #44]	@ (80007e8 <__libc_init_array+0x40>)
 80007ba:	4c0c      	ldr	r4, [pc, #48]	@ (80007ec <__libc_init_array+0x44>)
 80007bc:	f000 f818 	bl	80007f0 <_init>
 80007c0:	1b64      	subs	r4, r4, r5
 80007c2:	10a4      	asrs	r4, r4, #2
 80007c4:	2600      	movs	r6, #0
 80007c6:	42a6      	cmp	r6, r4
 80007c8:	d105      	bne.n	80007d6 <__libc_init_array+0x2e>
 80007ca:	bd70      	pop	{r4, r5, r6, pc}
 80007cc:	f855 3b04 	ldr.w	r3, [r5], #4
 80007d0:	4798      	blx	r3
 80007d2:	3601      	adds	r6, #1
 80007d4:	e7ee      	b.n	80007b4 <__libc_init_array+0xc>
 80007d6:	f855 3b04 	ldr.w	r3, [r5], #4
 80007da:	4798      	blx	r3
 80007dc:	3601      	adds	r6, #1
 80007de:	e7f2      	b.n	80007c6 <__libc_init_array+0x1e>
 80007e0:	080009f4 	.word	0x080009f4
 80007e4:	080009f4 	.word	0x080009f4
 80007e8:	080009f4 	.word	0x080009f4
 80007ec:	080009f8 	.word	0x080009f8

080007f0 <_init>:
 80007f0:	b5f8      	push	{r3, r4, r5, r6, r7, lr}
 80007f2:	bf00      	nop
 80007f4:	bcf8      	pop	{r3, r4, r5, r6, r7}
 80007f6:	bc08      	pop	{r3}
 80007f8:	469e      	mov	lr, r3
 80007fa:	4770      	bx	lr

080007fc <_fini>:
 80007fc:	b5f8      	push	{r3, r4, r5, r6, r7, lr}
 80007fe:	bf00      	nop
 8000800:	bcf8      	pop	{r3, r4, r5, r6, r7}
 8000802:	bc08      	pop	{r3}
 8000804:	469e      	mov	lr, r3
 8000806:	4770      	bx	lr
